target datalayout = "e-m:e-p270:32:32-p271:32:32-p272:64:64-i64:64-i128:128-f80:128-n8:16:32:64-S128"
target triple = "x86_64-pc-linux-gnu"

%struct.hnode = type { i32, i8, [2 x i32] }

; Function Attrs: nounwind uwtable
define internal i32 @huff_smallest_node(ptr noundef %0, i32 noundef %1) #1 {
  %3 = alloca i32, align 4
  %4 = alloca ptr, align 8
  %5 = alloca i32, align 4
  %6 = alloca i32, align 4
  %7 = alloca i32, align 4
  %8 = alloca i32, align 4
  %9 = alloca i32, align 4
  store ptr %0, ptr %4, align 8, !tbaa !54
  store i32 %1, ptr %5, align 4, !tbaa !31
  call void @llvm.lifetime.start.p0(i64 4, ptr %6) #5
  call void @llvm.lifetime.start.p0(i64 4, ptr %7) #5
  call void @llvm.lifetime.start.p0(i64 4, ptr %8) #5
  store i32 99999999, ptr %7, align 4, !tbaa !31
  store i32 -1, ptr %8, align 4, !tbaa !31
  store i32 0, ptr %6, align 4, !tbaa !31
  br label %10

10:                                               ; preds = %50, %2
  %11 = load i32, ptr %6, align 4, !tbaa !31
  %12 = load i32, ptr %5, align 4, !tbaa !31
  %13 = icmp slt i32 %11, %12
  br i1 %13, label %14, label %53

14:                                               ; preds = %10
  %15 = load ptr, ptr %4, align 8, !tbaa !54
  %16 = load i32, ptr %6, align 4, !tbaa !31
  %17 = sext i32 %16 to i64
  %18 = getelementptr inbounds %struct.hnode, ptr %15, i64 %17
  %19 = getelementptr inbounds nuw %struct.hnode, ptr %18, i32 0, i32 1
  %20 = load i8, ptr %19, align 4, !tbaa !56
  %21 = icmp ne i8 %20, 0
  br i1 %21, label %22, label %23

22:                                               ; preds = %14
  br label %50

23:                                               ; preds = %14
  %24 = load ptr, ptr %4, align 8, !tbaa !54
  %25 = load i32, ptr %6, align 4, !tbaa !31
  %26 = sext i32 %25 to i64
  %27 = getelementptr inbounds %struct.hnode, ptr %24, i64 %26
  %28 = getelementptr inbounds nuw %struct.hnode, ptr %27, i32 0, i32 0
  %29 = load i32, ptr %28, align 4, !tbaa !39
  %30 = icmp ne i32 %29, 0
  br i1 %30, label %32, label %31

31:                                               ; preds = %23
  br label %50

32:                                               ; preds = %23
  %33 = load ptr, ptr %4, align 8, !tbaa !54
  %34 = load i32, ptr %6, align 4, !tbaa !31
  %35 = sext i32 %34 to i64
  %36 = getelementptr inbounds %struct.hnode, ptr %33, i64 %35
  %37 = getelementptr inbounds nuw %struct.hnode, ptr %36, i32 0, i32 0
  %38 = load i32, ptr %37, align 4, !tbaa !39
  %39 = load i32, ptr %7, align 4, !tbaa !31
  %40 = icmp slt i32 %38, %39
  br i1 %40, label %41, label %49

41:                                               ; preds = %32
  %42 = load ptr, ptr %4, align 8, !tbaa !54
  %43 = load i32, ptr %6, align 4, !tbaa !31
  %44 = sext i32 %43 to i64
  %45 = getelementptr inbounds %struct.hnode, ptr %42, i64 %44
  %46 = getelementptr inbounds nuw %struct.hnode, ptr %45, i32 0, i32 0
  %47 = load i32, ptr %46, align 4, !tbaa !39
  store i32 %47, ptr %7, align 4, !tbaa !31
  %48 = load i32, ptr %6, align 4, !tbaa !31
  store i32 %48, ptr %8, align 4, !tbaa !31
  br label %49

49:                                               ; preds = %41, %32
  br label %50

50:                                               ; preds = %49, %31, %22
  %51 = load i32, ptr %6, align 4, !tbaa !31
  %52 = add nsw i32 %51, 1
  store i32 %52, ptr %6, align 4, !tbaa !31
  br label %10, !llvm.loop !58

53:                                               ; preds = %10
  %54 = load i32, ptr %8, align 4, !tbaa !31
  %55 = icmp eq i32 %54, -1
  br i1 %55, label %56, label %57

56:                                               ; preds = %53
  store i32 -1, ptr %3, align 4
  store i32 1, ptr %9, align 4
  br label %64

57:                                               ; preds = %53
  %58 = load ptr, ptr %4, align 8, !tbaa !54
  %59 = load i32, ptr %8, align 4, !tbaa !31
  %60 = sext i32 %59 to i64
  %61 = getelementptr inbounds %struct.hnode, ptr %58, i64 %60
  %62 = getelementptr inbounds nuw %struct.hnode, ptr %61, i32 0, i32 1
  store i8 1, ptr %62, align 4, !tbaa !56
  %63 = load i32, ptr %8, align 4, !tbaa !31
  store i32 %63, ptr %3, align 4
  store i32 1, ptr %9, align 4
  br label %64

64:                                               ; preds = %57, %56
  call void @llvm.lifetime.end.p0(i64 4, ptr %8) #5
  call void @llvm.lifetime.end.p0(i64 4, ptr %7) #5
  call void @llvm.lifetime.end.p0(i64 4, ptr %6) #5
  %65 = load i32, ptr %3, align 4
  ret i32 %65
}