; Function Attrs: nofree norecurse nosync nounwind memory(argmem: readwrite) uwtable
define internal fastcc i32 @huff_smallest_node(ptr noundef captures(none) %0, i32 noundef %1) unnamed_addr #4 {
  %3 = icmp sgt i32 %1, 0
  br i1 %3, label %.lr.ph.preheader, label %._crit_edge.thread

.lr.ph.preheader:                                 ; preds = %2
  %wide.trip.count = zext nneg i32 %1 to i64
  br label %.lr.ph

.lr.ph:                                           ; preds = %.lr.ph.preheader, %11
  %indvars.iv = phi i64 [ 0, %.lr.ph.preheader ], [ %indvars.iv.next, %11 ]
  %.026 = phi i32 [ -1, %.lr.ph.preheader ], [ %.1, %11 ]
  %.01725 = phi i32 [ 99999999, %.lr.ph.preheader ], [ %.118, %11 ]
  %4 = getelementptr inbounds nuw %struct.hnode, ptr %0, i64 %indvars.iv
  %5 = getelementptr inbounds nuw i8, ptr %4, i64 4
  %6 = load i8, ptr %5, align 4, !tbaa !51
  %.not = icmp eq i8 %6, 0
  br i1 %.not, label %7, label %11

7:                                                ; preds = %.lr.ph
  %8 = load i32, ptr %4, align 4, !tbaa !34
  %.not22 = icmp ne i32 %8, 0
  %9 = icmp slt i32 %8, %.01725
  %or.cond = select i1 %.not22, i1 %9, i1 false
  %spec.select = select i1 %or.cond, i32 %8, i32 %.01725
  %10 = trunc nuw nsw i64 %indvars.iv to i32
  %spec.select23 = select i1 %or.cond, i32 %10, i32 %.026
  br label %11

11:                                               ; preds = %7, %.lr.ph
  %.118 = phi i32 [ %.01725, %.lr.ph ], [ %spec.select, %7 ]
  %.1 = phi i32 [ %.026, %.lr.ph ], [ %spec.select23, %7 ]
  %indvars.iv.next = add nuw nsw i64 %indvars.iv, 1
  %exitcond.not = icmp eq i64 %indvars.iv.next, %wide.trip.count
  br i1 %exitcond.not, label %._crit_edge, label %.lr.ph, !llvm.loop !53

._crit_edge:                                      ; preds = %11
  %12 = icmp eq i32 %.1, -1
  br i1 %12, label %._crit_edge.thread, label %13

13:                                               ; preds = %._crit_edge
  %14 = sext i32 %.1 to i64
  %15 = getelementptr inbounds %struct.hnode, ptr %0, i64 %14, i32 1
  store i8 1, ptr %15, align 4, !tbaa !51
  br label %._crit_edge.thread

._crit_edge.thread:                               ; preds = %2, %._crit_edge, %13
  %.0.lcssa29 = phi i32 [ -1, %._crit_edge ], [ %.1, %13 ], [ -1, %2 ]
  ret i32 %.0.lcssa29
}